target datalayout = "e-m:e-p270:32:32-p271:32:32-p272:64:64-i64:64-i128:128-f80:128-n8:16:32:64-S128"
target triple = "x86_64-pc-linux-gnu"

; Function Attrs: nounwind uwtable
define void @Abc_NtkSynthesize(ptr noundef %0, i32 noundef %1) #0 {
  %3 = alloca ptr, align 8
  %4 = alloca i32, align 4
  %5 = alloca ptr, align 8
  %6 = alloca ptr, align 8
  store ptr %0, ptr %3, align 8, !tbaa !3
  store i32 %1, ptr %4, align 4, !tbaa !8
  call void @llvm.lifetime.start.p0(i64 8, ptr %5) #9
  call void @llvm.lifetime.start.p0(i64 8, ptr %6) #9
  %7 = load ptr, ptr %3, align 8, !tbaa !3
  %8 = load ptr, ptr %7, align 8, !tbaa !10
  store ptr %8, ptr %5, align 8, !tbaa !10
  %9 = load ptr, ptr %5, align 8, !tbaa !10
  %10 = call i32 @Abc_NtkRewrite(ptr noundef %9, i32 noundef 0, i32 noundef 0, i32 noundef 0, i32 noundef 0, i32 noundef 0)
  %11 = load ptr, ptr %5, align 8, !tbaa !10
  %12 = call i32 @Abc_NtkRefactor(ptr noundef %11, i32 noundef 10, i32 noundef 1, i32 noundef 16, i32 noundef 0, i32 noundef 0, i32 noundef 0, i32 noundef 0)
  %13 = load ptr, ptr %5, align 8, !tbaa !10
  store ptr %13, ptr %6, align 8, !tbaa !10
  %14 = call ptr @Abc_NtkBalance(ptr noundef %13, i32 noundef 0, i32 noundef 0, i32 noundef 0)
  store ptr %14, ptr %5, align 8, !tbaa !10
  %15 = load ptr, ptr %6, align 8, !tbaa !10
  call void @Abc_NtkDelete(ptr noundef %15)
  %16 = load i32, ptr %4, align 4, !tbaa !8
  %17 = icmp ne i32 %16, 0
  br i1 %17, label %18, label %29

18:                                               ; preds = %2
  %19 = load ptr, ptr %5, align 8, !tbaa !10
  %20 = call i32 @Abc_NtkRewrite(ptr noundef %19, i32 noundef 0, i32 noundef 0, i32 noundef 0, i32 noundef 0, i32 noundef 0)
  %21 = load ptr, ptr %5, align 8, !tbaa !10
  %22 = call i32 @Abc_NtkRefactor(ptr noundef %21, i32 noundef 10, i32 noundef 1, i32 noundef 16, i32 noundef 0, i32 noundef 0, i32 noundef 0, i32 noundef 0)
  %23 = load ptr, ptr %5, align 8, !tbaa !10
  store ptr %23, ptr %6, align 8, !tbaa !10
  %24 = call ptr @Abc_NtkBalance(ptr noundef %23, i32 noundef 0, i32 noundef 0, i32 noundef 0)
  store ptr %24, ptr %5, align 8, !tbaa !10
  %25 = load ptr, ptr %6, align 8, !tbaa !10
  call void @Abc_NtkDelete(ptr noundef %25)
  %26 = load ptr, ptr %5, align 8, !tbaa !10
  store ptr %26, ptr %6, align 8, !tbaa !10
  %27 = call ptr @Abc_NtkIvyFraig(ptr noundef %26, i32 noundef 100, i32 noundef 1, i32 noundef 0, i32 noundef 0, i32 noundef 0)
  store ptr %27, ptr %5, align 8, !tbaa !10
  %28 = load ptr, ptr %6, align 8, !tbaa !10
  call void @Abc_NtkDelete(ptr noundef %28)
  br label %29

29:                                               ; preds = %18, %2
  %30 = load ptr, ptr %5, align 8, !tbaa !10
  %31 = load ptr, ptr %3, align 8, !tbaa !3
  store ptr %30, ptr %31, align 8, !tbaa !10
  call void @llvm.lifetime.end.p0(i64 8, ptr %6) #9
  call void @llvm.lifetime.end.p0(i64 8, ptr %5) #9
  ret void
}