; Function Attrs: nounwind uwtable
define void @Abc_NtkSynthesize(ptr noundef captures(none) %0, i32 noundef %1) local_unnamed_addr #0 {
  %3 = load ptr, ptr %0, align 8, !tbaa !3
  %4 = tail call i32 @Abc_NtkRewrite(ptr noundef %3, i32 noundef 0, i32 noundef 0, i32 noundef 0, i32 noundef 0, i32 noundef 0) #13
  %5 = tail call i32 @Abc_NtkRefactor(ptr noundef %3, i32 noundef 10, i32 noundef 1, i32 noundef 16, i32 noundef 0, i32 noundef 0, i32 noundef 0, i32 noundef 0) #13
  %6 = tail call ptr @Abc_NtkBalance(ptr noundef %3, i32 noundef 0, i32 noundef 0, i32 noundef 0) #13
  tail call void @Abc_NtkDelete(ptr noundef %3) #13
  %.not = icmp eq i32 %1, 0
  br i1 %.not, label %12, label %7

7:                                                ; preds = %2
  %8 = tail call i32 @Abc_NtkRewrite(ptr noundef %6, i32 noundef 0, i32 noundef 0, i32 noundef 0, i32 noundef 0, i32 noundef 0) #13
  %9 = tail call i32 @Abc_NtkRefactor(ptr noundef %6, i32 noundef 10, i32 noundef 1, i32 noundef 16, i32 noundef 0, i32 noundef 0, i32 noundef 0, i32 noundef 0) #13
  %10 = tail call ptr @Abc_NtkBalance(ptr noundef %6, i32 noundef 0, i32 noundef 0, i32 noundef 0) #13
  tail call void @Abc_NtkDelete(ptr noundef %6) #13
  %11 = tail call ptr @Abc_NtkIvyFraig(ptr noundef %10, i32 noundef 100, i32 noundef 1, i32 noundef 0, i32 noundef 0, i32 noundef 0) #13
  tail call void @Abc_NtkDelete(ptr noundef %10) #13
  br label %12

12:                                               ; preds = %7, %2
  %.0 = phi ptr [ %11, %7 ], [ %6, %2 ]
  store ptr %.0, ptr %0, align 8, !tbaa !3
  ret void
}